target datalayout = "e-m:e-p270:32:32-p271:32:32-p272:64:64-i64:64-i128:128-f80:128-n8:16:32:64-S128"
target triple = "x86_64-pc-linux-gnu"

%struct.crypto_ex_data_st = type { ptr }
%struct.ssl_st = type { i32, i16, i16, ptr, ptr, ptr, ptr, ptr, i32, i32, ptr, ptr, i32, i32, ptr, ptr, ptr, ptr, ptr, ptr, ptr, ptr, i32, i32, [32 x i8], ptr, ptr, ptr, ptr, ptr, ptr, ptr, i64, %struct.crypto_ex_data_st, ptr, i32, i32, i32, i32, i16, ptr, i32, i64, ptr, ptr, ptr, ptr, ptr, ptr, i32, i32, ptr, ptr, i8, i8, i32 }

@.str = private unnamed_addr constant [117 x i8] c"generated/home/dtcxzyw/WorkSpace/Projects/compilers/llvm-opt-benchmark/bench/libquic/libquic/boringssl/ssl/ssl_lib.c\00", align 1

; Function Attrs: nounwind uwtable
define hidden i32 @SSL_set_session_id_context(ptr noundef %0, ptr noundef %1, i32 noundef %2) #0 {
  %4 = alloca i32, align 4
  %5 = alloca ptr, align 8
  %6 = alloca ptr, align 8
  %7 = alloca i32, align 4
  store ptr %0, ptr %5, align 8, !tbaa !80
  store ptr %1, ptr %6, align 8, !tbaa !55
  store i32 %2, ptr %7, align 4, !tbaa !61
  %8 = load i32, ptr %7, align 4, !tbaa !61
  %9 = icmp ugt i32 %8, 32
  br i1 %9, label %10, label %11

10:                                               ; preds = %3
  call void @ERR_put_error(i32 noundef 16, i32 noundef 0, i32 noundef 216, ptr noundef @.str, i32 noundef 957)
  store i32 0, ptr %4, align 4
  br label %21

11:                                               ; preds = %3
  %12 = load i32, ptr %7, align 4, !tbaa !61
  %13 = load ptr, ptr %5, align 8, !tbaa !80
  %14 = getelementptr inbounds nuw %struct.ssl_st, ptr %13, i32 0, i32 23
  store i32 %12, ptr %14, align 4, !tbaa !103
  %15 = load ptr, ptr %5, align 8, !tbaa !80
  %16 = getelementptr inbounds nuw %struct.ssl_st, ptr %15, i32 0, i32 24
  %17 = getelementptr inbounds [32 x i8], ptr %16, i64 0, i64 0
  %18 = load ptr, ptr %6, align 8, !tbaa !55
  %19 = load i32, ptr %7, align 4, !tbaa !61
  %20 = zext i32 %19 to i64
  call void @llvm.memcpy.p0.p0.i64(ptr align 8 %17, ptr align 1 %18, i64 %20, i1 false)
  store i32 1, ptr %4, align 4
  br label %21

21:                                               ; preds = %11, %10
  %22 = load i32, ptr %4, align 4
  ret i32 %22
}