; Function Attrs: nounwind uwtable
define hidden range(i32 0, 2) i32 @SSL_set_session_id_context(ptr noundef writeonly captures(none) %0, ptr noundef readonly captures(none) %1, i32 noundef %2) local_unnamed_addr #0 {
  %4 = icmp ugt i32 %2, 32
  br i1 %4, label %5, label %6

5:                                                ; preds = %3
  tail call void @ERR_put_error(i32 noundef 16, i32 noundef 0, i32 noundef 216, ptr noundef nonnull @.str, i32 noundef 957) #21
  br label %10

6:                                                ; preds = %3
  %7 = getelementptr inbounds nuw i8, ptr %0, i64 148
  store i32 %2, ptr %7, align 4, !tbaa !92
  %8 = getelementptr inbounds nuw i8, ptr %0, i64 152
  %9 = zext nneg i32 %2 to i64
  tail call void @llvm.memcpy.p0.p0.i64(ptr nonnull align 8 %8, ptr align 1 %1, i64 %9, i1 false)
  br label %10

10:                                               ; preds = %6, %5
  %.0 = phi i32 [ 0, %5 ], [ 1, %6 ]
  ret i32 %.0
}